; Function Attrs: nounwind uwtable
define void @Res_WinAddMissing_rec(ptr noundef readonly captures(none) %0, ptr noundef %1, i32 noundef %2) local_unnamed_addr #2 {
  %.val2.i = load ptr, ptr %1, align 8
  %4 = getelementptr i8, ptr %1, i64 16
  %.val3.i = load i32, ptr %4, align 8
  %5 = getelementptr inbounds nuw i8, ptr %.val2.i, i64 224
  %6 = add nsw i32 %.val3.i, 1
  tail call fastcc void @Vec_IntFillExtra(ptr noundef nonnull %5, i32 noundef %6)
  %7 = getelementptr i8, ptr %.val2.i, i64 232
  %.val.i.i.i = load ptr, ptr %7, align 8
  %8 = sext i32 %.val3.i to i64
  %9 = getelementptr inbounds i32, ptr %.val.i.i.i, i64 %8
  %10 = load i32, ptr %9, align 4
  %.val.i = load ptr, ptr %1, align 8
  %11 = getelementptr inbounds nuw i8, ptr %.val.i, i64 216
  %12 = load i32, ptr %11, align 8
  %.not = icmp eq i32 %10, %12
  br i1 %.not, label %107, label %13

13:                                               ; preds = %3
  %.val3.i23 = load i32, ptr %4, align 8
  %14 = getelementptr inbounds nuw i8, ptr %.val.i, i64 224
  %15 = add nsw i32 %.val3.i23, 1
  tail call fastcc void @Vec_IntFillExtra(ptr noundef nonnull %14, i32 noundef %15)
  %16 = getelementptr i8, ptr %.val.i, i64 232
  %.val.i.i.i24 = load ptr, ptr %16, align 8
  %17 = sext i32 %.val3.i23 to i64
  %18 = getelementptr inbounds i32, ptr %.val.i.i.i24, i64 %17
  %19 = load i32, ptr %18, align 4
  %.val.i25 = load ptr, ptr %1, align 8
  %20 = getelementptr inbounds nuw i8, ptr %.val.i25, i64 216
  %21 = load i32, ptr %20, align 8
  %22 = add nsw i32 %21, -1
  %.not35 = icmp eq i32 %19, %22
  %.val16 = load i32, ptr %4, align 8
  %23 = getelementptr inbounds nuw i8, ptr %.val.i25, i64 224
  %24 = add nsw i32 %.val16, 1
  tail call fastcc void @Vec_IntFillExtra(ptr noundef nonnull %23, i32 noundef %24)
  %25 = getelementptr i8, ptr %.val.i25, i64 232
  %.val.i.i.i27 = load ptr, ptr %25, align 8
  %26 = sext i32 %.val16 to i64
  %27 = getelementptr inbounds i32, ptr %.val.i.i.i27, i64 %26
  store i32 %21, ptr %27, align 4
  br i1 %.not35, label %60, label %28

28:                                               ; preds = %13
  %29 = getelementptr inbounds nuw i8, ptr %0, i64 56
  %30 = load ptr, ptr %29, align 8
  %31 = getelementptr inbounds nuw i8, ptr %30, i64 4
  %32 = load i32, ptr %31, align 4
  %33 = load i32, ptr %30, align 8
  %34 = icmp eq i32 %32, %33
  br i1 %34, label %35, label %.Vec_PtrGrow.exit11_crit_edge.i

.Vec_PtrGrow.exit11_crit_edge.i:                  ; preds = %28
  %.phi.trans.insert.i = getelementptr inbounds nuw i8, ptr %30, i64 8
  %.pre.i = load ptr, ptr %.phi.trans.insert.i, align 8
  br label %Vec_PtrPush.exit

35:                                               ; preds = %28
  %36 = icmp slt i32 %32, 16
  br i1 %36, label %37, label %45

37:                                               ; preds = %35
  %38 = getelementptr inbounds nuw i8, ptr %30, i64 8
  %39 = load ptr, ptr %38, align 8
  %.not9.i.i = icmp eq ptr %39, null
  br i1 %.not9.i.i, label %42, label %40

40:                                               ; preds = %37
  %41 = tail call dereferenceable_or_null(128) ptr @realloc(ptr noundef nonnull %39, i64 noundef 128) #10
  br label %Vec_PtrGrow.exit.i

42:                                               ; preds = %37
  %43 = tail call noalias dereferenceable_or_null(128) ptr @malloc(i64 noundef 128) #8
  br label %Vec_PtrGrow.exit.i

Vec_PtrGrow.exit.i:                               ; preds = %42, %40
  %44 = phi ptr [ %41, %40 ], [ %43, %42 ]
  store ptr %44, ptr %38, align 8
  store i32 16, ptr %30, align 8
  br label %Vec_PtrPush.exit

45:                                               ; preds = %35
  %46 = shl nuw nsw i32 %32, 1
  %47 = getelementptr inbounds nuw i8, ptr %30, i64 8
  %48 = load ptr, ptr %47, align 8
  %.not9.i10.i = icmp eq ptr %48, null
  %49 = zext nneg i32 %46 to i64
  %50 = shl nuw nsw i64 %49, 3
  br i1 %.not9.i10.i, label %53, label %51

51:                                               ; preds = %45
  %52 = tail call ptr @realloc(ptr noundef nonnull %48, i64 noundef %50) #10
  br label %55

53:                                               ; preds = %45
  %54 = tail call noalias ptr @malloc(i64 noundef %50) #8
  br label %55

55:                                               ; preds = %53, %51
  %56 = phi ptr [ %52, %51 ], [ %54, %53 ]
  store ptr %56, ptr %47, align 8
  store i32 %46, ptr %30, align 8
  br label %Vec_PtrPush.exit

Vec_PtrPush.exit:                                 ; preds = %.Vec_PtrGrow.exit11_crit_edge.i, %Vec_PtrGrow.exit.i, %55
  %57 = phi ptr [ %.pre.i, %.Vec_PtrGrow.exit11_crit_edge.i ], [ %56, %55 ], [ %44, %Vec_PtrGrow.exit.i ]
  %58 = load i32, ptr %31, align 4
  %59 = add nsw i32 %58, 1
  store i32 %59, ptr %31, align 4
  br label %.sink.split

60:                                               ; preds = %13
  %61 = getelementptr i8, ptr %1, i64 28
  %.val1936 = load i32, ptr %61, align 4
  %62 = icmp sgt i32 %.val1936, 0
  br i1 %62, label %.lr.ph, label %.critedge

.lr.ph:                                           ; preds = %60
  %63 = getelementptr i8, ptr %1, i64 32
  br label %64

64:                                               ; preds = %.lr.ph, %64
  %indvars.iv = phi i64 [ 0, %.lr.ph ], [ %indvars.iv.next, %64 ]
  %.val20 = load ptr, ptr %1, align 8
  %.val21 = load ptr, ptr %63, align 8
  %65 = getelementptr i8, ptr %.val20, i64 32
  %.val20.val = load ptr, ptr %65, align 8
  %66 = getelementptr i8, ptr %.val20.val, i64 8
  %.val20.val.val = load ptr, ptr %66, align 8
  %67 = getelementptr inbounds nuw i32, ptr %.val21, i64 %indvars.iv
  %68 = load i32, ptr %67, align 4
  %69 = sext i32 %68 to i64
  %70 = getelementptr inbounds ptr, ptr %.val20.val.val, i64 %69
  %71 = load ptr, ptr %70, align 8
  tail call void @Res_WinAddMissing_rec(ptr noundef %0, ptr noundef %71, i32 noundef %2)
  %indvars.iv.next = add nuw nsw i64 %indvars.iv, 1
  %.val19 = load i32, ptr %61, align 4
  %72 = sext i32 %.val19 to i64
  %73 = icmp slt i64 %indvars.iv.next, %72
  br i1 %73, label %64, label %.critedge, !llvm.loop !25

.critedge:                                        ; preds = %64, %60
  %74 = getelementptr inbounds nuw i8, ptr %0, i64 64
  %75 = load ptr, ptr %74, align 8
  %76 = getelementptr inbounds nuw i8, ptr %75, i64 4
  %77 = load i32, ptr %76, align 4
  %78 = load i32, ptr %75, align 8
  %79 = icmp eq i32 %77, %78
  br i1 %79, label %80, label %.Vec_PtrGrow.exit11_crit_edge.i28

.Vec_PtrGrow.exit11_crit_edge.i28:                ; preds = %.critedge
  %.phi.trans.insert.i29 = getelementptr inbounds nuw i8, ptr %75, i64 8
  %.pre.i30 = load ptr, ptr %.phi.trans.insert.i29, align 8
  br label %Vec_PtrPush.exit34

80:                                               ; preds = %.critedge
  %81 = icmp slt i32 %77, 16
  br i1 %81, label %82, label %90

82:                                               ; preds = %80
  %83 = getelementptr inbounds nuw i8, ptr %75, i64 8
  %84 = load ptr, ptr %83, align 8
  %.not9.i.i32 = icmp eq ptr %84, null
  br i1 %.not9.i.i32, label %87, label %85

85:                                               ; preds = %82
  %86 = tail call dereferenceable_or_null(128) ptr @realloc(ptr noundef nonnull %84, i64 noundef 128) #10
  br label %Vec_PtrGrow.exit.i33

87:                                               ; preds = %82
  %88 = tail call noalias dereferenceable_or_null(128) ptr @malloc(i64 noundef 128) #8
  br label %Vec_PtrGrow.exit.i33

Vec_PtrGrow.exit.i33:                             ; preds = %87, %85
  %89 = phi ptr [ %86, %85 ], [ %88, %87 ]
  store ptr %89, ptr %83, align 8
  store i32 16, ptr %75, align 8
  br label %Vec_PtrPush.exit34

90:                                               ; preds = %80
  %91 = shl nuw nsw i32 %77, 1
  %92 = getelementptr inbounds nuw i8, ptr %75, i64 8
  %93 = load ptr, ptr %92, align 8
  %.not9.i10.i31 = icmp eq ptr %93, null
  %94 = zext nneg i32 %91 to i64
  %95 = shl nuw nsw i64 %94, 3
  br i1 %.not9.i10.i31, label %98, label %96

96:                                               ; preds = %90
  %97 = tail call ptr @realloc(ptr noundef nonnull %93, i64 noundef %95) #10
  br label %100

98:                                               ; preds = %90
  %99 = tail call noalias ptr @malloc(i64 noundef %95) #8
  br label %100

100:                                              ; preds = %98, %96
  %101 = phi ptr [ %97, %96 ], [ %99, %98 ]
  store ptr %101, ptr %92, align 8
  store i32 %91, ptr %75, align 8
  br label %Vec_PtrPush.exit34

Vec_PtrPush.exit34:                               ; preds = %.Vec_PtrGrow.exit11_crit_edge.i28, %Vec_PtrGrow.exit.i33, %100
  %102 = phi ptr [ %.pre.i30, %.Vec_PtrGrow.exit11_crit_edge.i28 ], [ %101, %100 ], [ %89, %Vec_PtrGrow.exit.i33 ]
  %103 = load i32, ptr %76, align 4
  %104 = add nsw i32 %103, 1
  store i32 %104, ptr %76, align 4
  br label %.sink.split

.sink.split:                                      ; preds = %Vec_PtrPush.exit, %Vec_PtrPush.exit34
  %.sink = phi i32 [ %103, %Vec_PtrPush.exit34 ], [ %58, %Vec_PtrPush.exit ]
  %.sink39 = phi ptr [ %102, %Vec_PtrPush.exit34 ], [ %57, %Vec_PtrPush.exit ]
  %105 = sext i32 %.sink to i64
  %106 = getelementptr inbounds ptr, ptr %.sink39, i64 %105
  store ptr %1, ptr %106, align 8
  br label %107

107:                                              ; preds = %.sink.split, %3
  ret void
}